; Function Attrs: nounwind uwtable
define dso_local void @evalRoCommand(ptr noundef %0) #0 {
  %2 = load ptr, ptr getelementptr inbounds nuw (i8, ptr @server, i64 1472), align 8, !tbaa !113
  %3 = getelementptr inbounds nuw i8, ptr %0, i64 32
  %4 = load ptr, ptr %3, align 8, !tbaa !114
  %5 = getelementptr inbounds nuw i8, ptr %4, i64 56
  %6 = load i32, ptr %5, align 8, !tbaa !115
  %7 = getelementptr inbounds nuw i8, ptr %0, i64 96
  %8 = load ptr, ptr %7, align 8, !tbaa !108
  %9 = getelementptr inbounds nuw i8, ptr %0, i64 88
  %10 = load i32, ptr %9, align 8, !tbaa !117
  tail call void @replicationFeedMonitors(ptr noundef %0, ptr noundef %2, i32 noundef %6, ptr noundef %8, i32 noundef %10) #19
  %11 = getelementptr inbounds nuw i8, ptr %0, i64 8
  %12 = load i64, ptr %11, align 8, !tbaa !65
  %13 = and i64 %12, 33554432
  %.not.i = icmp eq i64 %13, 0
  br i1 %.not.i, label %14, label %15

14:                                               ; preds = %1
  tail call void @evalGenericCommand(ptr noundef nonnull %0, i32 noundef 0)
  br label %evalCommand.exit

15:                                               ; preds = %1
  %16 = tail call i32 @ldbStartSession(ptr noundef nonnull %0)
  %.not.i.i = icmp eq i32 %16, 0
  br i1 %.not.i.i, label %18, label %17

17:                                               ; preds = %15
  tail call void @evalGenericCommand(ptr noundef nonnull %0, i32 noundef 0)
  tail call void @ldbEndSession(ptr noundef nonnull %0)
  br label %evalCommand.exit

18:                                               ; preds = %15
  %19 = load i64, ptr %11, align 8, !tbaa !65
  %20 = and i64 %19, -100663297
  store i64 %20, ptr %11, align 8, !tbaa !65
  br label %evalCommand.exit

evalCommand.exit:                                 ; preds = %14, %17, %18
  ret void
}